; Function Attrs: mustprogress uwtable
define internal fastcc void @_ZN6google8protobuf8compiler4java12_GLOBAL__N_123ClassNameWithoutPackageB5cxx11EPKNS0_14EnumDescriptorEb(ptr noalias nonnull align 8 %agg.result, ptr noundef readonly captures(none) %descriptor) unnamed_addr #3 personality ptr @__gxx_personality_v0 {
entry:
  %ref.tmp = alloca %"class.absl::lts_20230802::AlphaNum", align 8
  %ref.tmp2 = alloca %"class.std::__cxx11::basic_string", align 8
  %ref.tmp3 = alloca %"class.absl::lts_20230802::AlphaNum", align 8
  %ref.tmp5 = alloca %"class.absl::lts_20230802::AlphaNum", align 8
  %containing_type_.i = getelementptr inbounds nuw i8, ptr %descriptor, i64 24
  %0 = load ptr, ptr %containing_type_.i, align 8
  %cmp = icmp eq ptr %0, null
  br i1 %cmp, label %if.then, label %invoke.cont4

if.then:                                          ; preds = %entry
  %all_names_.i = getelementptr inbounds nuw i8, ptr %descriptor, i64 8
  %1 = load ptr, ptr %all_names_.i, align 8
  tail call void @_ZNSt7__cxx1112basic_stringIcSt11char_traitsIcESaIcEEC1ERKS4_(ptr noundef nonnull align 8 dereferenceable(32) %agg.result, ptr noundef nonnull align 8 dereferenceable(32) %1)
  br label %return

invoke.cont4:                                     ; preds = %entry
  call fastcc void @_ZN6google8protobuf8compiler4java12_GLOBAL__N_123ClassNameWithoutPackageB5cxx11EPKNS0_10DescriptorEb(ptr noalias align 8 %ref.tmp2, ptr noundef nonnull %0)
  %call.i = call { i64, ptr } @_ZNKSt7__cxx1112basic_stringIcSt11char_traitsIcESaIcEEcvSt17basic_string_viewIcS2_EEv(ptr noundef nonnull align 8 dereferenceable(32) %ref.tmp2) #18
  %2 = extractvalue { i64, ptr } %call.i, 0
  store i64 %2, ptr %ref.tmp, align 8
  %3 = getelementptr inbounds nuw i8, ptr %ref.tmp, i64 8
  %4 = extractvalue { i64, ptr } %call.i, 1
  store ptr %4, ptr %3, align 8
  store i64 1, ptr %ref.tmp3, align 8
  %5 = getelementptr inbounds nuw i8, ptr %ref.tmp3, i64 8
  store ptr @.str.3, ptr %5, align 8
  %all_names_.i4 = getelementptr inbounds nuw i8, ptr %descriptor, i64 8
  %6 = load ptr, ptr %all_names_.i4, align 8
  %call.i5 = call { i64, ptr } @_ZNKSt7__cxx1112basic_stringIcSt11char_traitsIcESaIcEEcvSt17basic_string_viewIcS2_EEv(ptr noundef nonnull align 8 dereferenceable(32) %6) #18
  %7 = extractvalue { i64, ptr } %call.i5, 0
  store i64 %7, ptr %ref.tmp5, align 8
  %8 = getelementptr inbounds nuw i8, ptr %ref.tmp5, i64 8
  %9 = extractvalue { i64, ptr } %call.i5, 1
  store ptr %9, ptr %8, align 8
  invoke void @_ZN4absl12lts_202308026StrCatB5cxx11ERKNS0_8AlphaNumES3_S3_(ptr nonnull sret(%"class.std::__cxx11::basic_string") align 8 %agg.result, ptr noundef nonnull align 8 dereferenceable(48) %ref.tmp, ptr noundef nonnull align 8 dereferenceable(48) %ref.tmp3, ptr noundef nonnull align 8 dereferenceable(48) %ref.tmp5)
          to label %invoke.cont8 unwind label %lpad

invoke.cont8:                                     ; preds = %invoke.cont4
  call void @_ZNSt7__cxx1112basic_stringIcSt11char_traitsIcESaIcEED1Ev(ptr noundef nonnull align 8 dereferenceable(32) %ref.tmp2) #18
  br label %return

lpad:                                             ; preds = %invoke.cont4
  %10 = landingpad { ptr, i32 }
          cleanup
  call void @_ZNSt7__cxx1112basic_stringIcSt11char_traitsIcESaIcEED1Ev(ptr noundef nonnull align 8 dereferenceable(32) %ref.tmp2) #18
  resume { ptr, i32 } %10

return:                                           ; preds = %invoke.cont8, %if.then
  ret void
}